target datalayout = "e-m:e-p270:32:32-p271:32:32-p272:64:64-i64:64-i128:128-f80:128-n8:16:32:64-S128"
target triple = "x86_64-pc-linux-gnu"

%struct.WOLFSSL = type <{ ptr, ptr, ptr, ptr, [48 x i8], [48 x i8], ptr, ptr, ptr, ptr, ptr, ptr, ptr, ptr, ptr, ptr, ptr, ptr, ptr, i32, [4 x i8], %struct.WOLFSSL_CIPHER, ptr, %struct.Ciphers, %struct.Ciphers, [8 x i8], %struct.Buffers, ptr, ptr, %struct.WOLFSSL_ALERT_HISTORY, %struct.WOLFSSL_ALERT, i32, i32, i32, i32, i32, i32, i32, i16, [2 x i8], i32, i8, %struct.RecordLayerHeader, %struct.MsgsReceived, %struct.ProtocolVersion, %struct.ProtocolVersion, %struct.CipherSpecs, [2 x i8], %struct.Keys, %struct.Options, ptr, i8, i8, i16, [10 x i16], i8, i8, i16, i16, [38 x i8], i32, i32, [4 x i8], ptr, i8, i8, [6 x i8], ptr, ptr, i16, i8, i8, i32, i8, [3 x i8], i32, %struct.OneTimeAuth, ptr }>
%struct.WOLFSSL_CIPHER = type { i8, i8, ptr }
%struct.Ciphers = type { ptr, ptr, ptr, ptr, i8, i8 }
%struct.Buffers = type { %struct.bufferStatic, %struct.bufferStatic, %struct.WOLFSSL_BUFFER_INFO, %struct.WOLFSSL_BUFFER_INFO, %struct.WOLFSSL_BUFFER_INFO, %struct.WOLFSSL_BUFFER_INFO, i32, i32, i8, i8, i8, i8, %struct.WOLFSSL_BUFFER_INFO, %struct.WOLFSSL_BUFFER_INFO, %struct.WOLFSSL_BUFFER_INFO, %struct.WOLFSSL_BUFFER_INFO, ptr, ptr, ptr, i8, i8, i32, i32, ptr, i32, [1 x ptr] }
%struct.bufferStatic = type { [5 x i8], ptr, i32, i32, i32, i8, i8 }
%struct.WOLFSSL_BUFFER_INFO = type { ptr, i32 }
%struct.WOLFSSL_ALERT_HISTORY = type { %struct.WOLFSSL_ALERT, %struct.WOLFSSL_ALERT }
%struct.WOLFSSL_ALERT = type { i32, i32 }
%struct.RecordLayerHeader = type { i8, i8, i8, [2 x i8] }
%struct.MsgsReceived = type { i32 }
%struct.ProtocolVersion = type { i8, i8 }
%struct.CipherSpecs = type { i16, i16, i16, i16, i8, i8, i8, i8, i8, i8, i8, i8 }
%struct.Keys = type { [64 x i8], [64 x i8], [32 x i8], [32 x i8], [16 x i8], [16 x i8], [8 x i8], [12 x i8], [12 x i8], i32, i32, i32, i32, i32, i32, i8, i8, i8, i8 }
%struct.Options = type { i64, i64, i8, i8, i8, i8, i8, i8, i8, i8, i8, i8, i8, i8, i8, i8, i8, i8, i8, i8, i8, i8, i8, i16, i16, i16, i16, i16, i8 }
%struct.OneTimeAuth = type { ptr, i8 }
%struct.Suites = type { i16, i16, [300 x i8], [38 x i8], i8 }
%struct.DerBuffer = type { ptr, ptr, i32, i32, i32 }

; Function Attrs: inlinehint nounwind uwtable
define internal void @ato16(ptr noundef %0, ptr noundef %1) #4 {
  %3 = alloca ptr, align 8
  %4 = alloca ptr, align 8
  store ptr %0, ptr %3, align 8, !tbaa !8
  store ptr %1, ptr %4, align 8, !tbaa !147
  %5 = load ptr, ptr %3, align 8, !tbaa !8
  %6 = getelementptr inbounds i8, ptr %5, i64 0
  %7 = load i8, ptr %6, align 1, !tbaa !58
  %8 = zext i8 %7 to i32
  %9 = shl i32 %8, 8
  %10 = load ptr, ptr %3, align 8, !tbaa !8
  %11 = getelementptr inbounds i8, ptr %10, i64 1
  %12 = load i8, ptr %11, align 1, !tbaa !58
  %13 = zext i8 %12 to i32
  %14 = or i32 %9, %13
  %15 = trunc i32 %14 to i16
  %16 = load ptr, ptr %4, align 8, !tbaa !147
  store i16 %15, ptr %16, align 2, !tbaa !66
  ret void
}

; Function Attrs: nounwind uwtable
define internal i32 @DoTls13CertificateRequest(ptr noundef %0, ptr noundef %1, ptr noundef %2, i32 noundef %3) #0 {
  %5 = alloca i32, align 4
  %6 = alloca ptr, align 8
  %7 = alloca ptr, align 8
  %8 = alloca ptr, align 8
  %9 = alloca i32, align 4
  %10 = alloca i16, align 2
  %11 = alloca i32, align 4
  %12 = alloca i32, align 4
  %13 = alloca %struct.Suites, align 2
  %14 = alloca i32, align 4
  store ptr %0, ptr %6, align 8, !tbaa !3
  store ptr %1, ptr %7, align 8, !tbaa !8
  store ptr %2, ptr %8, align 8, !tbaa !125
  store i32 %3, ptr %9, align 4, !tbaa !10
  call void @llvm.lifetime.start.p0(i64 2, ptr %10) #8
  call void @llvm.lifetime.start.p0(i64 4, ptr %11) #8
  %15 = load ptr, ptr %8, align 8, !tbaa !125
  %16 = load i32, ptr %15, align 4, !tbaa !10
  store i32 %16, ptr %11, align 4, !tbaa !10
  call void @llvm.lifetime.start.p0(i64 4, ptr %12) #8
  store i32 0, ptr %12, align 4, !tbaa !10
  call void @llvm.lifetime.start.p0(i64 344, ptr %13) #8
  br label %17

17:                                               ; preds = %4
  br label %18

18:                                               ; preds = %17
  br label %19

19:                                               ; preds = %18
  br label %20

20:                                               ; preds = %19
  br label %21

21:                                               ; preds = %20
  br label %22

22:                                               ; preds = %21
  call void @llvm.memset.p0.i64(ptr align 2 %13, i8 0, i64 344, i1 false)
  %23 = load i32, ptr %9, align 4, !tbaa !10
  %24 = icmp ugt i32 1, %23
  br i1 %24, label %25, label %26

25:                                               ; preds = %22
  store i32 -328, ptr %5, align 4
  store i32 1, ptr %14, align 4
  br label %179

26:                                               ; preds = %22
  %27 = load ptr, ptr %7, align 8, !tbaa !8
  %28 = load ptr, ptr %8, align 8, !tbaa !125
  %29 = load i32, ptr %28, align 4, !tbaa !10
  %30 = add i32 %29, 1
  store i32 %30, ptr %28, align 4, !tbaa !10
  %31 = zext i32 %29 to i64
  %32 = getelementptr inbounds nuw i8, ptr %27, i64 %31
  %33 = load i8, ptr %32, align 1, !tbaa !58
  %34 = zext i8 %33 to i16
  store i16 %34, ptr %10, align 2, !tbaa !66
  %35 = load ptr, ptr %8, align 8, !tbaa !125
  %36 = load i32, ptr %35, align 4, !tbaa !10
  %37 = load i32, ptr %11, align 4, !tbaa !10
  %38 = sub i32 %36, %37
  %39 = load i16, ptr %10, align 2, !tbaa !66
  %40 = zext i16 %39 to i32
  %41 = add i32 %38, %40
  %42 = load i32, ptr %9, align 4, !tbaa !10
  %43 = icmp ugt i32 %41, %42
  br i1 %43, label %44, label %45

44:                                               ; preds = %26
  store i32 -328, ptr %5, align 4
  store i32 1, ptr %14, align 4
  br label %179

45:                                               ; preds = %26
  %46 = load ptr, ptr %6, align 8, !tbaa !3
  %47 = getelementptr inbounds nuw %struct.WOLFSSL, ptr %46, i32 0, i32 49
  %48 = getelementptr inbounds nuw %struct.Options, ptr %47, i32 0, i32 18
  %49 = load i8, ptr %48, align 8, !tbaa !121
  %50 = zext i8 %49 to i32
  %51 = icmp slt i32 %50, 9
  br i1 %51, label %52, label %57

52:                                               ; preds = %45
  %53 = load i16, ptr %10, align 2, !tbaa !66
  %54 = zext i16 %53 to i32
  %55 = icmp sgt i32 %54, 0
  br i1 %55, label %56, label %57

56:                                               ; preds = %52
  store i32 -328, ptr %5, align 4
  store i32 1, ptr %14, align 4
  br label %179

57:                                               ; preds = %52, %45
  %58 = load i16, ptr %10, align 2, !tbaa !66
  %59 = zext i16 %58 to i32
  %60 = load ptr, ptr %8, align 8, !tbaa !125
  %61 = load i32, ptr %60, align 4, !tbaa !10
  %62 = add i32 %61, %59
  store i32 %62, ptr %60, align 4, !tbaa !10
  %63 = load ptr, ptr %8, align 8, !tbaa !125
  %64 = load i32, ptr %63, align 4, !tbaa !10
  %65 = load i32, ptr %11, align 4, !tbaa !10
  %66 = sub i32 %64, %65
  %67 = add i32 %66, 2
  %68 = load i32, ptr %9, align 4, !tbaa !10
  %69 = icmp ugt i32 %67, %68
  br i1 %69, label %70, label %71

70:                                               ; preds = %57
  store i32 -328, ptr %5, align 4
  store i32 1, ptr %14, align 4
  br label %179

71:                                               ; preds = %57
  %72 = load ptr, ptr %7, align 8, !tbaa !8
  %73 = load ptr, ptr %8, align 8, !tbaa !125
  %74 = load i32, ptr %73, align 4, !tbaa !10
  %75 = zext i32 %74 to i64
  %76 = getelementptr inbounds nuw i8, ptr %72, i64 %75
  call void @ato16(ptr noundef %76, ptr noundef %10)
  %77 = load ptr, ptr %8, align 8, !tbaa !125
  %78 = load i32, ptr %77, align 4, !tbaa !10
  %79 = add i32 %78, 2
  store i32 %79, ptr %77, align 4, !tbaa !10
  %80 = load ptr, ptr %8, align 8, !tbaa !125
  %81 = load i32, ptr %80, align 4, !tbaa !10
  %82 = load i32, ptr %11, align 4, !tbaa !10
  %83 = sub i32 %81, %82
  %84 = load i16, ptr %10, align 2, !tbaa !66
  %85 = zext i16 %84 to i32
  %86 = add i32 %83, %85
  %87 = load i32, ptr %9, align 4, !tbaa !10
  %88 = icmp ugt i32 %86, %87
  br i1 %88, label %89, label %90

89:                                               ; preds = %71
  store i32 -328, ptr %5, align 4
  store i32 1, ptr %14, align 4
  br label %179

90:                                               ; preds = %71
  %91 = load i16, ptr %10, align 2, !tbaa !66
  %92 = zext i16 %91 to i32
  %93 = icmp eq i32 %92, 0
  br i1 %93, label %94, label %95

94:                                               ; preds = %90
  store i32 -425, ptr %5, align 4
  store i32 1, ptr %14, align 4
  br label %179

95:                                               ; preds = %90
  %96 = load ptr, ptr %6, align 8, !tbaa !3
  %97 = load ptr, ptr %7, align 8, !tbaa !8
  %98 = load ptr, ptr %8, align 8, !tbaa !125
  %99 = load i32, ptr %98, align 4, !tbaa !10
  %100 = zext i32 %99 to i64
  %101 = getelementptr inbounds nuw i8, ptr %97, i64 %100
  %102 = load i16, ptr %10, align 2, !tbaa !66
  %103 = call i32 @TLSX_Parse(ptr noundef %96, ptr noundef %101, i16 noundef zeroext %102, i8 noundef zeroext 13, ptr noundef %13)
  store i32 %103, ptr %12, align 4, !tbaa !10
  %104 = icmp ne i32 %103, 0
  br i1 %104, label %105, label %107

105:                                              ; preds = %95
  %106 = load i32, ptr %12, align 4, !tbaa !10
  store i32 %106, ptr %5, align 4
  store i32 1, ptr %14, align 4
  br label %179

107:                                              ; preds = %95
  %108 = load i16, ptr %10, align 2, !tbaa !66
  %109 = zext i16 %108 to i32
  %110 = load ptr, ptr %8, align 8, !tbaa !125
  %111 = load i32, ptr %110, align 4, !tbaa !10
  %112 = add i32 %111, %109
  store i32 %112, ptr %110, align 4, !tbaa !10
  %113 = load ptr, ptr %6, align 8, !tbaa !3
  %114 = getelementptr inbounds nuw %struct.WOLFSSL, ptr %113, i32 0, i32 26
  %115 = getelementptr inbounds nuw %struct.Buffers, ptr %114, i32 0, i32 17
  %116 = load ptr, ptr %115, align 8, !tbaa !164
  %117 = icmp ne ptr %116, null
  br i1 %117, label %118, label %157

118:                                              ; preds = %107
  %119 = load ptr, ptr %6, align 8, !tbaa !3
  %120 = getelementptr inbounds nuw %struct.WOLFSSL, ptr %119, i32 0, i32 26
  %121 = getelementptr inbounds nuw %struct.Buffers, ptr %120, i32 0, i32 17
  %122 = load ptr, ptr %121, align 8, !tbaa !164
  %123 = getelementptr inbounds nuw %struct.DerBuffer, ptr %122, i32 0, i32 0
  %124 = load ptr, ptr %123, align 8, !tbaa !165
  %125 = icmp ne ptr %124, null
  br i1 %125, label %126, label %157

126:                                              ; preds = %118
  %127 = load ptr, ptr %6, align 8, !tbaa !3
  %128 = getelementptr inbounds nuw %struct.WOLFSSL, ptr %127, i32 0, i32 26
  %129 = getelementptr inbounds nuw %struct.Buffers, ptr %128, i32 0, i32 18
  %130 = load ptr, ptr %129, align 16, !tbaa !167
  %131 = icmp ne ptr %130, null
  br i1 %131, label %132, label %157

132:                                              ; preds = %126
  %133 = load ptr, ptr %6, align 8, !tbaa !3
  %134 = getelementptr inbounds nuw %struct.WOLFSSL, ptr %133, i32 0, i32 26
  %135 = getelementptr inbounds nuw %struct.Buffers, ptr %134, i32 0, i32 18
  %136 = load ptr, ptr %135, align 16, !tbaa !167
  %137 = getelementptr inbounds nuw %struct.DerBuffer, ptr %136, i32 0, i32 0
  %138 = load ptr, ptr %137, align 8, !tbaa !165
  %139 = icmp ne ptr %138, null
  br i1 %139, label %140, label %157

140:                                              ; preds = %132
  %141 = load ptr, ptr %6, align 8, !tbaa !3
  %142 = getelementptr inbounds nuw %struct.Suites, ptr %13, i32 0, i32 3
  %143 = getelementptr inbounds [38 x i8], ptr %142, i64 0, i64 0
  %144 = getelementptr inbounds nuw %struct.Suites, ptr %13, i32 0, i32 1
  %145 = load i16, ptr %144, align 2, !tbaa !155
  %146 = zext i16 %145 to i32
  %147 = call i32 @PickHashSigAlgo(ptr noundef %141, ptr noundef %143, i32 noundef %146, i32 noundef 0)
  %148 = icmp ne i32 %147, 0
  br i1 %148, label %149, label %150

149:                                              ; preds = %140
  store i32 -425, ptr %5, align 4
  store i32 1, ptr %14, align 4
  br label %179

150:                                              ; preds = %140
  %151 = load ptr, ptr %6, align 8, !tbaa !3
  %152 = getelementptr inbounds nuw %struct.WOLFSSL, ptr %151, i32 0, i32 49
  %153 = getelementptr inbounds nuw %struct.Options, ptr %152, i32 0, i32 1
  %154 = load i64, ptr %153, align 8
  %155 = and i64 %154, -4
  %156 = or i64 %155, 1
  store i64 %156, ptr %153, align 8
  br label %164

157:                                              ; preds = %132, %126, %118, %107
  %158 = load ptr, ptr %6, align 8, !tbaa !3
  %159 = getelementptr inbounds nuw %struct.WOLFSSL, ptr %158, i32 0, i32 49
  %160 = getelementptr inbounds nuw %struct.Options, ptr %159, i32 0, i32 1
  %161 = load i64, ptr %160, align 8
  %162 = and i64 %161, -4
  %163 = or i64 %162, 2
  store i64 %163, ptr %160, align 8
  br label %164

164:                                              ; preds = %157, %150
  %165 = load ptr, ptr %6, align 8, !tbaa !3
  %166 = getelementptr inbounds nuw %struct.WOLFSSL, ptr %165, i32 0, i32 48
  %167 = getelementptr inbounds nuw %struct.Keys, ptr %166, i32 0, i32 14
  %168 = load i32, ptr %167, align 4, !tbaa !159
  %169 = load ptr, ptr %8, align 8, !tbaa !125
  %170 = load i32, ptr %169, align 4, !tbaa !10
  %171 = add i32 %170, %168
  store i32 %171, ptr %169, align 4, !tbaa !10
  br label %172

172:                                              ; preds = %164
  br label %173

173:                                              ; preds = %172
  br label %174

174:                                              ; preds = %173
  br label %175

175:                                              ; preds = %174
  br label %176

176:                                              ; preds = %175
  br label %177

177:                                              ; preds = %176
  %178 = load i32, ptr %12, align 4, !tbaa !10
  store i32 %178, ptr %5, align 4
  store i32 1, ptr %14, align 4
  br label %179

179:                                              ; preds = %177, %149, %105, %94, %89, %70, %56, %44, %25
  call void @llvm.lifetime.end.p0(i64 344, ptr %13) #8
  call void @llvm.lifetime.end.p0(i64 4, ptr %12) #8
  call void @llvm.lifetime.end.p0(i64 4, ptr %11) #8
  call void @llvm.lifetime.end.p0(i64 2, ptr %10) #8
  %180 = load i32, ptr %5, align 4
  ret i32 %180
}