; Function Attrs: nounwind uwtable
define internal fastcc i32 @DoTls13CertificateRequest(ptr noundef %0, ptr noundef %1, ptr noundef captures(none) %2, i32 noundef %3) unnamed_addr #0 {
  %5 = alloca %struct.Suites, align 2
  %6 = load i32, ptr %2, align 4, !tbaa !109
  call void @llvm.lifetime.start.p0(i64 344, ptr nonnull %5) #11
  call void @llvm.memset.p0.i64(ptr noundef nonnull align 2 dereferenceable(344) %5, i8 0, i64 344, i1 false)
  %7 = icmp eq i32 %3, 0
  br i1 %7, label %69, label %8

8:                                                ; preds = %4
  %9 = add i32 %6, 1
  store i32 %9, ptr %2, align 4, !tbaa !109
  %10 = zext i32 %6 to i64
  %11 = getelementptr inbounds nuw i8, ptr %1, i64 %10
  %12 = load i8, ptr %11, align 1, !tbaa !57
  %13 = zext i8 %12 to i32
  %.not46 = icmp ugt i32 %3, %13
  br i1 %.not46, label %14, label %69

14:                                               ; preds = %8
  %15 = getelementptr inbounds nuw i8, ptr %0, i64 1048
  %16 = load i8, ptr %15, align 8, !tbaa !105
  %17 = icmp ult i8 %16, 9
  %18 = icmp ne i8 %12, 0
  %or.cond = and i1 %18, %17
  br i1 %or.cond, label %69, label %19

19:                                               ; preds = %14
  %20 = add i32 %9, %13
  store i32 %20, ptr %2, align 4, !tbaa !109
  %21 = add nuw nsw i32 %13, 3
  %22 = icmp ugt i32 %21, %3
  br i1 %22, label %69, label %23

23:                                               ; preds = %19
  %24 = zext i32 %20 to i64
  %25 = getelementptr inbounds nuw i8, ptr %1, i64 %24
  %.val = load i8, ptr %25, align 1, !tbaa !57
  %26 = getelementptr i8, ptr %25, i64 1
  %.val44 = load i8, ptr %26, align 1, !tbaa !57
  %27 = zext i8 %.val to i16
  %28 = shl nuw i16 %27, 8
  %29 = zext i8 %.val44 to i16
  %30 = or disjoint i16 %28, %29
  %31 = add i32 %20, 2
  store i32 %31, ptr %2, align 4, !tbaa !109
  %32 = sub i32 %31, %6
  %33 = zext i16 %30 to i32
  %34 = add i32 %32, %33
  %35 = icmp ugt i32 %34, %3
  br i1 %35, label %69, label %36

36:                                               ; preds = %23
  %37 = icmp eq i16 %30, 0
  br i1 %37, label %69, label %38

38:                                               ; preds = %36
  %39 = zext i32 %31 to i64
  %40 = getelementptr inbounds nuw i8, ptr %1, i64 %39
  %41 = call i32 @TLSX_Parse(ptr noundef nonnull %0, ptr noundef %40, i16 noundef zeroext %30, i8 noundef zeroext 13, ptr noundef nonnull %5) #11
  %.not = icmp eq i32 %41, 0
  br i1 %.not, label %42, label %69

42:                                               ; preds = %38
  %43 = load i32, ptr %2, align 4, !tbaa !109
  %44 = add i32 %43, %33
  store i32 %44, ptr %2, align 4, !tbaa !109
  %45 = getelementptr inbounds nuw i8, ptr %0, i64 568
  %46 = load ptr, ptr %45, align 8, !tbaa !128
  %.not39 = icmp eq ptr %46, null
  br i1 %.not39, label %60, label %47

47:                                               ; preds = %42
  %48 = load ptr, ptr %46, align 8, !tbaa !129
  %.not40 = icmp eq ptr %48, null
  br i1 %.not40, label %60, label %49

49:                                               ; preds = %47
  %50 = getelementptr inbounds nuw i8, ptr %0, i64 576
  %51 = load ptr, ptr %50, align 16, !tbaa !131
  %.not41 = icmp eq ptr %51, null
  br i1 %.not41, label %60, label %52

52:                                               ; preds = %49
  %53 = load ptr, ptr %51, align 8, !tbaa !129
  %.not42 = icmp eq ptr %53, null
  br i1 %.not42, label %60, label %54

54:                                               ; preds = %52
  %55 = getelementptr inbounds nuw i8, ptr %5, i64 304
  %56 = getelementptr inbounds nuw i8, ptr %5, i64 2
  %57 = load i16, ptr %56, align 2, !tbaa !120
  %58 = zext i16 %57 to i32
  %59 = call i32 @PickHashSigAlgo(ptr noundef nonnull %0, ptr noundef nonnull %55, i32 noundef %58, i32 noundef 0) #11
  %.not43 = icmp eq i32 %59, 0
  br i1 %.not43, label %60, label %69

60:                                               ; preds = %42, %47, %49, %52, %54
  %.sink49 = phi i64 [ 1, %54 ], [ 2, %52 ], [ 2, %49 ], [ 2, %47 ], [ 2, %42 ]
  %61 = getelementptr inbounds nuw i8, ptr %0, i64 1024
  %62 = load i64, ptr %61, align 8
  %63 = and i64 %62, -4
  %64 = or disjoint i64 %63, %.sink49
  store i64 %64, ptr %61, align 8
  %65 = getelementptr inbounds nuw i8, ptr %0, i64 1008
  %66 = load i32, ptr %65, align 4, !tbaa !123
  %67 = load i32, ptr %2, align 4, !tbaa !109
  %68 = add i32 %67, %66
  store i32 %68, ptr %2, align 4, !tbaa !109
  br label %69

69:                                               ; preds = %54, %38, %36, %23, %19, %14, %8, %4, %60
  %.0 = phi i32 [ 0, %60 ], [ -328, %4 ], [ -328, %8 ], [ -328, %14 ], [ -328, %19 ], [ -328, %23 ], [ -425, %36 ], [ %41, %38 ], [ -425, %54 ]
  call void @llvm.lifetime.end.p0(i64 344, ptr nonnull %5) #11
  ret i32 %.0
}